; Function Attrs: mustprogress uwtable
define void @_Z7frewindP8_IO_FILE(ptr noundef %0) local_unnamed_addr #9 personality ptr @__gxx_personality_v0 {
  %2 = tail call noundef i32 @pthread_mutex_lock(ptr noundef nonnull align 8 dereferenceable(40) @_ZL12pstack_mutex) #30
  %.not.i.i = icmp eq i32 %2, 0
  br i1 %.not.i.i, label %_ZNSt10lock_guardISt5mutexEC2ERS0_.exit.preheader, label %3

_ZNSt10lock_guardISt5mutexEC2ERS0_.exit.preheader: ; preds = %1
  %.05 = load ptr, ptr @_ZL6pstack, align 8, !tbaa !11
  %.not6 = icmp eq ptr %.05, null
  br i1 %.not6, label %_ZNSt10lock_guardISt5mutexEC2ERS0_.exit._crit_edge, label %.lr.ph

3:                                                ; preds = %1
  tail call void @_ZSt20__throw_system_errori(i32 noundef %2) #31
  unreachable

_ZNSt10lock_guardISt5mutexEC2ERS0_.exit:          ; preds = %.lr.ph
  %4 = getelementptr inbounds nuw i8, ptr %.07, i64 8
  %.0 = load ptr, ptr %4, align 8, !tbaa !11
  %.not = icmp eq ptr %.0, null
  br i1 %.not, label %_ZNSt10lock_guardISt5mutexEC2ERS0_.exit._crit_edge, label %.lr.ph, !llvm.loop !19

.lr.ph:                                           ; preds = %_ZNSt10lock_guardISt5mutexEC2ERS0_.exit.preheader, %_ZNSt10lock_guardISt5mutexEC2ERS0_.exit
  %.07 = phi ptr [ %.0, %_ZNSt10lock_guardISt5mutexEC2ERS0_.exit ], [ %.05, %_ZNSt10lock_guardISt5mutexEC2ERS0_.exit.preheader ]
  %5 = load ptr, ptr %.07, align 8, !tbaa !13
  %6 = icmp eq ptr %5, %0
  br i1 %6, label %7, label %_ZNSt10lock_guardISt5mutexEC2ERS0_.exit

7:                                                ; preds = %.lr.ph
  %8 = load ptr, ptr @stderr, align 8, !tbaa !20
  %9 = tail call i64 @fwrite(ptr nonnull @.str.5, i64 31, i64 1, ptr %8) #33
  br label %10

_ZNSt10lock_guardISt5mutexEC2ERS0_.exit._crit_edge: ; preds = %_ZNSt10lock_guardISt5mutexEC2ERS0_.exit, %_ZNSt10lock_guardISt5mutexEC2ERS0_.exit.preheader
  tail call void @rewind(ptr noundef %0)
  br label %10

10:                                               ; preds = %_ZNSt10lock_guardISt5mutexEC2ERS0_.exit._crit_edge, %7
  %11 = tail call noundef i32 @pthread_mutex_unlock(ptr noundef nonnull align 8 dereferenceable(40) @_ZL12pstack_mutex) #30
  ret void
}